target datalayout = "e-m:e-p270:32:32-p271:32:32-p272:64:64-i64:64-i128:128-f80:128-n8:16:32:64-S128"
target triple = "x86_64-unknown-linux-gnu"

%"class.hermes::SourceMapGenerator" = type { %"class.std::vector", %"class.std::vector.0", %"class.std::vector.5", %"struct.hermes::StringSetVector", %"class.std::vector.10", %"class.llvh::DenseMap.15" }
%"class.std::vector" = type { %"struct.std::_Vector_base" }
%"struct.std::_Vector_base" = type { %"struct.std::_Vector_base<std::__cxx11::basic_string<char>, std::allocator<std::__cxx11::basic_string<char>>>::_Vector_impl" }
%"struct.std::_Vector_base<std::__cxx11::basic_string<char>, std::allocator<std::__cxx11::basic_string<char>>>::_Vector_impl" = type { %"struct.std::_Vector_base<std::__cxx11::basic_string<char>, std::allocator<std::__cxx11::basic_string<char>>>::_Vector_impl_data" }
%"struct.std::_Vector_base<std::__cxx11::basic_string<char>, std::allocator<std::__cxx11::basic_string<char>>>::_Vector_impl_data" = type { ptr, ptr, ptr }
%"class.std::vector.0" = type { %"struct.std::_Vector_base.1" }
%"struct.std::_Vector_base.1" = type { %"struct.std::_Vector_base<std::vector<hermes::SourceMap::Segment>, std::allocator<std::vector<hermes::SourceMap::Segment>>>::_Vector_impl" }
%"struct.std::_Vector_base<std::vector<hermes::SourceMap::Segment>, std::allocator<std::vector<hermes::SourceMap::Segment>>>::_Vector_impl" = type { %"struct.std::_Vector_base<std::vector<hermes::SourceMap::Segment>, std::allocator<std::vector<hermes::SourceMap::Segment>>>::_Vector_impl_data" }
%"struct.std::_Vector_base<std::vector<hermes::SourceMap::Segment>, std::allocator<std::vector<hermes::SourceMap::Segment>>>::_Vector_impl_data" = type { ptr, ptr, ptr }
%"class.std::vector.5" = type { %"struct.std::_Vector_base.6" }
%"struct.std::_Vector_base.6" = type { %"struct.std::_Vector_base<std::unique_ptr<hermes::SourceMap>, std::allocator<std::unique_ptr<hermes::SourceMap>>>::_Vector_impl" }
%"struct.std::_Vector_base<std::unique_ptr<hermes::SourceMap>, std::allocator<std::unique_ptr<hermes::SourceMap>>>::_Vector_impl" = type { %"struct.std::_Vector_base<std::unique_ptr<hermes::SourceMap>, std::allocator<std::unique_ptr<hermes::SourceMap>>>::_Vector_impl_data" }
%"struct.std::_Vector_base<std::unique_ptr<hermes::SourceMap>, std::allocator<std::unique_ptr<hermes::SourceMap>>>::_Vector_impl_data" = type { ptr, ptr, ptr }
%"struct.hermes::StringSetVector" = type { %"class.std::deque", %"class.llvh::DenseMap" }
%"class.std::deque" = type { %"class.std::_Deque_base" }
%"class.std::_Deque_base" = type { %"struct.std::_Deque_base<std::__cxx11::basic_string<char>, std::allocator<std::__cxx11::basic_string<char>>>::_Deque_impl" }
%"struct.std::_Deque_base<std::__cxx11::basic_string<char>, std::allocator<std::__cxx11::basic_string<char>>>::_Deque_impl" = type { %"struct.std::_Deque_base<std::__cxx11::basic_string<char>, std::allocator<std::__cxx11::basic_string<char>>>::_Deque_impl_data" }
%"struct.std::_Deque_base<std::__cxx11::basic_string<char>, std::allocator<std::__cxx11::basic_string<char>>>::_Deque_impl_data" = type { ptr, i64, %"struct.std::_Deque_iterator", %"struct.std::_Deque_iterator" }
%"struct.std::_Deque_iterator" = type { ptr, ptr, ptr, ptr }
%"class.llvh::DenseMap" = type <{ ptr, i32, i32, i32, [4 x i8] }>
%"class.std::vector.10" = type { %"struct.std::_Vector_base.11" }
%"struct.std::_Vector_base.11" = type { %"struct.std::_Vector_base<llvh::Optional<hermes::parser::JSONSharedValue>, std::allocator<llvh::Optional<hermes::parser::JSONSharedValue>>>::_Vector_impl" }
%"struct.std::_Vector_base<llvh::Optional<hermes::parser::JSONSharedValue>, std::allocator<llvh::Optional<hermes::parser::JSONSharedValue>>>::_Vector_impl" = type { %"struct.std::_Vector_base<llvh::Optional<hermes::parser::JSONSharedValue>, std::allocator<llvh::Optional<hermes::parser::JSONSharedValue>>>::_Vector_impl_data" }
%"struct.std::_Vector_base<llvh::Optional<hermes::parser::JSONSharedValue>, std::allocator<llvh::Optional<hermes::parser::JSONSharedValue>>>::_Vector_impl_data" = type { ptr, ptr, ptr }
%"class.llvh::DenseMap.15" = type <{ ptr, i32, i32, i32, [4 x i8] }>
%"struct.std::pair" = type { %"class.llvh::Optional.18", ptr }
%"class.llvh::Optional.18" = type { %"struct.llvh::optional_detail::OptionalStorage.19" }
%"struct.llvh::optional_detail::OptionalStorage.19" = type { %"struct.llvh::AlignedCharArrayUnion.20", i8, [3 x i8] }
%"struct.llvh::AlignedCharArrayUnion.20" = type { %"struct.llvh::AlignedCharArray.21" }
%"struct.llvh::AlignedCharArray.21" = type { [28 x i8] }
%"struct.hermes::SourceMap::Segment" = type { i32, %"class.llvh::Optional.23" }
%"class.llvh::Optional.23" = type { %"struct.llvh::optional_detail::OptionalStorage.24" }
%"struct.llvh::optional_detail::OptionalStorage.24" = type { %"struct.llvh::AlignedCharArrayUnion.25", i8, [3 x i8] }
%"struct.llvh::AlignedCharArrayUnion.25" = type { %"struct.llvh::AlignedCharArray.26" }
%"struct.llvh::AlignedCharArray.26" = type { [20 x i8] }
%"struct.hermes::SourceMap::Segment::SourceLocation" = type { i32, i32, i32, %"class.llvh::Optional.28" }
%"class.llvh::Optional.28" = type { %"struct.llvh::optional_detail::OptionalStorage.29" }
%"struct.llvh::optional_detail::OptionalStorage.29" = type { %"struct.llvh::AlignedCharArrayUnion.30", i8, [3 x i8] }
%"struct.llvh::AlignedCharArrayUnion.30" = type { %"struct.llvh::AlignedCharArray.31" }
%"struct.llvh::AlignedCharArray.31" = type { [4 x i8] }
%"class.std::unique_ptr" = type { %"struct.std::__uniq_ptr_data" }
%"struct.std::__uniq_ptr_data" = type { %"class.std::__uniq_ptr_impl" }
%"class.std::__uniq_ptr_impl" = type { %"class.std::tuple" }
%"class.std::tuple" = type { %"struct.std::_Tuple_impl" }
%"struct.std::_Tuple_impl" = type { %"struct.std::_Head_base.34" }
%"struct.std::_Head_base.34" = type { ptr }

; Function Attrs: mustprogress nounwind uwtable
define linkonce_odr hidden noundef nonnull align 8 dereferenceable(8) ptr @_ZNSt10_Head_baseILm0EPN6hermes9SourceMapELb0EE7_M_headERKS3_(ptr noundef nonnull align 8 dereferenceable(8) %__b) #0 comdat align 2 {
entry:
  %__b.addr = alloca ptr, align 8
  store ptr %__b, ptr %__b.addr, align 8
  %0 = load ptr, ptr %__b.addr, align 8
  %_M_head_impl = getelementptr inbounds %"struct.std::_Head_base.34", ptr %0, i32 0, i32 0
  ret ptr %_M_head_impl
}

; Function Attrs: mustprogress nounwind uwtable
define linkonce_odr hidden noundef nonnull align 8 dereferenceable(8) ptr @_ZNSt11_Tuple_implILm0EJPN6hermes9SourceMapESt14default_deleteIS1_EEE7_M_headERKS5_(ptr noundef nonnull align 8 dereferenceable(8) %__t) #0 comdat align 2 {
entry:
  %__t.addr = alloca ptr, align 8
  store ptr %__t, ptr %__t.addr, align 8
  %0 = load ptr, ptr %__t.addr, align 8
  %call = call noundef nonnull align 8 dereferenceable(8) ptr @_ZNSt10_Head_baseILm0EPN6hermes9SourceMapELb0EE7_M_headERKS3_(ptr noundef nonnull align 8 dereferenceable(8) %0) #9
  ret ptr %call
}

; Function Attrs: mustprogress nounwind uwtable
define linkonce_odr hidden noundef nonnull align 8 dereferenceable(8) ptr @_ZSt12__get_helperILm0EPN6hermes9SourceMapEJSt14default_deleteIS1_EEERKT0_RKSt11_Tuple_implIXT_EJS5_DpT1_EE(ptr noundef nonnull align 8 dereferenceable(8) %__t) #0 comdat {
entry:
  %__t.addr = alloca ptr, align 8
  store ptr %__t, ptr %__t.addr, align 8
  %0 = load ptr, ptr %__t.addr, align 8
  %call = call noundef nonnull align 8 dereferenceable(8) ptr @_ZNSt11_Tuple_implILm0EJPN6hermes9SourceMapESt14default_deleteIS1_EEE7_M_headERKS5_(ptr noundef nonnull align 8 dereferenceable(8) %0) #9
  ret ptr %call
}

; Function Attrs: mustprogress nounwind uwtable
define linkonce_odr hidden noundef nonnull align 8 dereferenceable(8) ptr @_ZSt3getILm0EJPN6hermes9SourceMapESt14default_deleteIS1_EEERKNSt13tuple_elementIXT_ESt5tupleIJDpT0_EEE4typeERKS9_(ptr noundef nonnull align 8 dereferenceable(8) %__t) #0 comdat {
entry:
  %__t.addr = alloca ptr, align 8
  store ptr %__t, ptr %__t.addr, align 8
  %0 = load ptr, ptr %__t.addr, align 8
  %call = call noundef nonnull align 8 dereferenceable(8) ptr @_ZSt12__get_helperILm0EPN6hermes9SourceMapEJSt14default_deleteIS1_EEERKT0_RKSt11_Tuple_implIXT_EJS5_DpT1_EE(ptr noundef nonnull align 8 dereferenceable(8) %0) #9
  ret ptr %call
}

; Function Attrs: mustprogress nounwind uwtable
define linkonce_odr hidden void @_ZNSt4pairIN4llvh8OptionalIN6hermes9SourceMap7SegmentEEEPKS3_EC2IRS5_RS7_TnNSt9enable_ifIXaaclsr5_PCCPE22_MoveConstructiblePairIT_T0_EEclsr5_PCCPE30_ImplicitlyMoveConvertiblePairISD_SE_EEEbE4typeELb1EEEOSD_OSE_(ptr noundef nonnull align 8 dereferenceable(40) %this, ptr noundef nonnull align 4 dereferenceable(32) %__x, ptr noundef nonnull align 8 dereferenceable(8) %__y) unnamed_addr #0 comdat align 2 {
entry:
  %this.addr = alloca ptr, align 8
  %__x.addr = alloca ptr, align 8
  %__y.addr = alloca ptr, align 8
  store ptr %this, ptr %this.addr, align 8
  store ptr %__x, ptr %__x.addr, align 8
  store ptr %__y, ptr %__y.addr, align 8
  %this1 = load ptr, ptr %this.addr, align 8
  %first = getelementptr inbounds %"struct.std::pair", ptr %this1, i32 0, i32 0
  %0 = load ptr, ptr %__x.addr, align 8
  call void @llvm.memcpy.p0.p0.i64(ptr align 8 %first, ptr align 4 %0, i64 32, i1 false)
  %second = getelementptr inbounds %"struct.std::pair", ptr %this1, i32 0, i32 1
  %1 = load ptr, ptr %__y.addr, align 8
  %2 = load ptr, ptr %1, align 8
  store ptr %2, ptr %second, align 8
  ret void
}

; Function Attrs: mustprogress nounwind uwtable
define linkonce_odr hidden noundef ptr @_ZNKSt15__uniq_ptr_implIN6hermes9SourceMapESt14default_deleteIS1_EE6_M_ptrEv(ptr noundef nonnull align 8 dereferenceable(8) %this) #0 comdat align 2 {
entry:
  %this.addr = alloca ptr, align 8
  store ptr %this, ptr %this.addr, align 8
  %this1 = load ptr, ptr %this.addr, align 8
  %_M_t = getelementptr inbounds %"class.std::__uniq_ptr_impl", ptr %this1, i32 0, i32 0
  %call = call noundef nonnull align 8 dereferenceable(8) ptr @_ZSt3getILm0EJPN6hermes9SourceMapESt14default_deleteIS1_EEERKNSt13tuple_elementIXT_ESt5tupleIJDpT0_EEE4typeERKS9_(ptr noundef nonnull align 8 dereferenceable(8) %_M_t) #9
  %0 = load ptr, ptr %call, align 8
  ret ptr %0
}

; Function Attrs: mustprogress nounwind uwtable
define linkonce_odr hidden noundef ptr @_ZNK4llvh8OptionalIN6hermes9SourceMap7Segment14SourceLocationEE10getPointerEv(ptr noundef nonnull align 4 dereferenceable(24) %this) #0 comdat align 2 {
entry:
  %this.addr = alloca ptr, align 8
  store ptr %this, ptr %this.addr, align 8
  %this1 = load ptr, ptr %this.addr, align 8
  %Storage = getelementptr inbounds %"class.llvh::Optional.23", ptr %this1, i32 0, i32 0
  %storage = getelementptr inbounds %"struct.llvh::optional_detail::OptionalStorage.24", ptr %Storage, i32 0, i32 0
  %buffer = getelementptr inbounds %"struct.llvh::AlignedCharArray.26", ptr %storage, i32 0, i32 0
  %arraydecay = getelementptr inbounds [20 x i8], ptr %buffer, i64 0, i64 0
  ret ptr %arraydecay
}

; Function Attrs: mustprogress nounwind uwtable
define linkonce_odr hidden void @_ZN4llvh15optional_detail15OptionalStorageIN6hermes9SourceMap7SegmentELb1EEC2Ev(ptr noundef nonnull align 4 dereferenceable(29) %this) unnamed_addr #0 comdat align 2 {
entry:
  %this.addr = alloca ptr, align 8
  store ptr %this, ptr %this.addr, align 8
  %this1 = load ptr, ptr %this.addr, align 8
  %hasVal = getelementptr inbounds %"struct.llvh::optional_detail::OptionalStorage.19", ptr %this1, i32 0, i32 1
  store i8 0, ptr %hasVal, align 4
  ret void
}

; Function Attrs: mustprogress nounwind uwtable
define linkonce_odr hidden void @_ZSt9make_pairIRN4llvh8OptionalIN6hermes9SourceMap7SegmentEEERPKS3_ESt4pairINSt25__strip_reference_wrapperINSt5decayIT_E4typeEE6__typeENSB_INSC_IT0_E4typeEE6__typeEEOSD_OSI_(ptr noalias sret(%"struct.std::pair") align 8 %agg.result, ptr noundef nonnull align 4 dereferenceable(32) %__x, ptr noundef nonnull align 8 dereferenceable(8) %__y) #0 comdat {
entry:
  %__x.addr = alloca ptr, align 8
  %__y.addr = alloca ptr, align 8
  store ptr %__x, ptr %__x.addr, align 8
  store ptr %__y, ptr %__y.addr, align 8
  %0 = load ptr, ptr %__x.addr, align 8
  %1 = load ptr, ptr %__y.addr, align 8
  call void @_ZNSt4pairIN4llvh8OptionalIN6hermes9SourceMap7SegmentEEEPKS3_EC2IRS5_RS7_TnNSt9enable_ifIXaaclsr5_PCCPE22_MoveConstructiblePairIT_T0_EEclsr5_PCCPE30_ImplicitlyMoveConvertiblePairISD_SE_EEEbE4typeELb1EEEOSD_OSE_(ptr noundef nonnull align 8 dereferenceable(40) %agg.result, ptr noundef nonnull align 4 dereferenceable(32) %0, ptr noundef nonnull align 8 dereferenceable(8) %1)
  ret void
}

; Function Attrs: mustprogress nounwind uwtable
define linkonce_odr hidden noundef ptr @_ZNKSt10unique_ptrIN6hermes9SourceMapESt14default_deleteIS1_EE3getEv(ptr noundef nonnull align 8 dereferenceable(8) %this) #0 comdat align 2 {
entry:
  %this.addr = alloca ptr, align 8
  store ptr %this, ptr %this.addr, align 8
  %this1 = load ptr, ptr %this.addr, align 8
  %_M_t = getelementptr inbounds %"class.std::unique_ptr", ptr %this1, i32 0, i32 0
  %call = call noundef ptr @_ZNKSt15__uniq_ptr_implIN6hermes9SourceMapESt14default_deleteIS1_EE6_M_ptrEv(ptr noundef nonnull align 8 dereferenceable(8) %_M_t) #9
  ret ptr %call
}

; Function Attrs: mustprogress nounwind uwtable
define linkonce_odr hidden noundef nonnull align 8 dereferenceable(8) ptr @_ZNKSt6vectorISt10unique_ptrIN6hermes9SourceMapESt14default_deleteIS2_EESaIS5_EEixEm(ptr noundef nonnull align 8 dereferenceable(24) %this, i64 noundef %__n) #0 comdat align 2 {
entry:
  %this.addr = alloca ptr, align 8
  %__n.addr = alloca i64, align 8
  store ptr %this, ptr %this.addr, align 8
  store i64 %__n, ptr %__n.addr, align 8
  %this1 = load ptr, ptr %this.addr, align 8
  %_M_impl = getelementptr inbounds %"struct.std::_Vector_base.6", ptr %this1, i32 0, i32 0
  %_M_start = getelementptr inbounds %"struct.std::_Vector_base<std::unique_ptr<hermes::SourceMap>, std::allocator<std::unique_ptr<hermes::SourceMap>>>::_Vector_impl_data", ptr %_M_impl, i32 0, i32 0
  %0 = load ptr, ptr %_M_start, align 8
  %1 = load i64, ptr %__n.addr, align 8
  %add.ptr = getelementptr inbounds %"class.std::unique_ptr", ptr %0, i64 %1
  ret ptr %add.ptr
}

; Function Attrs: mustprogress nounwind uwtable
define linkonce_odr hidden noundef i64 @_ZNKSt6vectorISt10unique_ptrIN6hermes9SourceMapESt14default_deleteIS2_EESaIS5_EE4sizeEv(ptr noundef nonnull align 8 dereferenceable(24) %this) #0 comdat align 2 {
entry:
  %this.addr = alloca ptr, align 8
  store ptr %this, ptr %this.addr, align 8
  %this1 = load ptr, ptr %this.addr, align 8
  %_M_impl = getelementptr inbounds %"struct.std::_Vector_base.6", ptr %this1, i32 0, i32 0
  %_M_finish = getelementptr inbounds %"struct.std::_Vector_base<std::unique_ptr<hermes::SourceMap>, std::allocator<std::unique_ptr<hermes::SourceMap>>>::_Vector_impl_data", ptr %_M_impl, i32 0, i32 1
  %0 = load ptr, ptr %_M_finish, align 8
  %_M_impl2 = getelementptr inbounds %"struct.std::_Vector_base.6", ptr %this1, i32 0, i32 0
  %_M_start = getelementptr inbounds %"struct.std::_Vector_base<std::unique_ptr<hermes::SourceMap>, std::allocator<std::unique_ptr<hermes::SourceMap>>>::_Vector_impl_data", ptr %_M_impl2, i32 0, i32 0
  %1 = load ptr, ptr %_M_start, align 8
  %sub.ptr.lhs.cast = ptrtoint ptr %0 to i64
  %sub.ptr.rhs.cast = ptrtoint ptr %1 to i64
  %sub.ptr.sub = sub i64 %sub.ptr.lhs.cast, %sub.ptr.rhs.cast
  %sub.ptr.div = sdiv exact i64 %sub.ptr.sub, 8
  ret i64 %sub.ptr.div
}

; Function Attrs: mustprogress nounwind uwtable
define linkonce_odr hidden noundef ptr @_ZNK4llvh8OptionalIN6hermes9SourceMap7Segment14SourceLocationEEptEv(ptr noundef nonnull align 4 dereferenceable(24) %this) #0 comdat align 2 {
entry:
  %this.addr = alloca ptr, align 8
  store ptr %this, ptr %this.addr, align 8
  %this1 = load ptr, ptr %this.addr, align 8
  %call = call noundef ptr @_ZNK4llvh8OptionalIN6hermes9SourceMap7Segment14SourceLocationEE10getPointerEv(ptr noundef nonnull align 4 dereferenceable(24) %this1)
  ret ptr %call
}

; Function Attrs: mustprogress nounwind uwtable
define linkonce_odr hidden void @_ZN4llvh8OptionalIN6hermes9SourceMap7SegmentEEC2Ev(ptr noundef nonnull align 4 dereferenceable(32) %this) unnamed_addr #0 comdat align 2 {
entry:
  %this.addr = alloca ptr, align 8
  store ptr %this, ptr %this.addr, align 8
  %this1 = load ptr, ptr %this.addr, align 8
  %Storage = getelementptr inbounds %"class.llvh::Optional.18", ptr %this1, i32 0, i32 0
  call void @_ZN4llvh15optional_detail15OptionalStorageIN6hermes9SourceMap7SegmentELb1EEC2Ev(ptr noundef nonnull align 4 dereferenceable(29) %Storage) #9
  ret void
}

; Function Attrs: mustprogress nounwind uwtable
define linkonce_odr hidden noundef zeroext i1 @_ZNK4llvh8OptionalIN6hermes9SourceMap7Segment14SourceLocationEE8hasValueEv(ptr noundef nonnull align 4 dereferenceable(24) %this) #0 comdat align 2 {
entry:
  %this.addr = alloca ptr, align 8
  store ptr %this, ptr %this.addr, align 8
  %this1 = load ptr, ptr %this.addr, align 8
  %Storage = getelementptr inbounds %"class.llvh::Optional.23", ptr %this1, i32 0, i32 0
  %hasVal = getelementptr inbounds %"struct.llvh::optional_detail::OptionalStorage.24", ptr %Storage, i32 0, i32 1
  %0 = load i8, ptr %hasVal, align 4
  %tobool = trunc i8 %0 to i1
  ret i1 %tobool
}

; Function Attrs: mustprogress nounwind uwtable
define hidden void @_ZNK6hermes18SourceMapGenerator25getInputSegmentForSegmentERKNS_9SourceMap7SegmentE(ptr noalias sret(%"struct.std::pair") align 8 %agg.result, ptr noundef nonnull align 8 dereferenceable(224) %this, ptr noundef nonnull align 4 dereferenceable(28) %seg) #0 align 2 {
entry:
  %this.addr = alloca ptr, align 8
  %seg.addr = alloca ptr, align 8
  %inputMap = alloca ptr, align 8
  %inputSeg = alloca %"class.llvh::Optional.18", align 4
  %ref.tmp = alloca %"class.llvh::Optional.18", align 4
  store ptr %this, ptr %this.addr, align 8
  store ptr %seg, ptr %seg.addr, align 8
  %this1 = load ptr, ptr %this.addr, align 8
  %0 = load ptr, ptr %seg.addr, align 8
  %representedLocation = getelementptr inbounds %"struct.hermes::SourceMap::Segment", ptr %0, i32 0, i32 1
  %call = call noundef zeroext i1 @_ZNK4llvh8OptionalIN6hermes9SourceMap7Segment14SourceLocationEE8hasValueEv(ptr noundef nonnull align 4 dereferenceable(24) %representedLocation)
  br i1 %call, label %if.then, label %if.end

if.then:                                          ; preds = %entry
  br label %if.end

if.end:                                           ; preds = %if.then, %entry
  store ptr null, ptr %inputMap, align 8
  call void @_ZN4llvh8OptionalIN6hermes9SourceMap7SegmentEEC2Ev(ptr noundef nonnull align 4 dereferenceable(32) %inputSeg)
  %1 = load ptr, ptr %seg.addr, align 8
  %representedLocation2 = getelementptr inbounds %"struct.hermes::SourceMap::Segment", ptr %1, i32 0, i32 1
  %call3 = call noundef zeroext i1 @_ZNK4llvh8OptionalIN6hermes9SourceMap7Segment14SourceLocationEE8hasValueEv(ptr noundef nonnull align 4 dereferenceable(24) %representedLocation2)
  br i1 %call3, label %land.lhs.true, label %if.end22

land.lhs.true:                                    ; preds = %if.end
  %2 = load ptr, ptr %seg.addr, align 8
  %representedLocation4 = getelementptr inbounds %"struct.hermes::SourceMap::Segment", ptr %2, i32 0, i32 1
  %call5 = call noundef ptr @_ZNK4llvh8OptionalIN6hermes9SourceMap7Segment14SourceLocationEEptEv(ptr noundef nonnull align 4 dereferenceable(24) %representedLocation4)
  %sourceIndex = getelementptr inbounds %"struct.hermes::SourceMap::Segment::SourceLocation", ptr %call5, i32 0, i32 0
  %3 = load i32, ptr %sourceIndex, align 4
  %conv = zext i32 %3 to i64
  %inputSourceMaps_ = getelementptr inbounds %"class.hermes::SourceMapGenerator", ptr %this1, i32 0, i32 2
  %call6 = call noundef i64 @_ZNKSt6vectorISt10unique_ptrIN6hermes9SourceMapESt14default_deleteIS2_EESaIS5_EE4sizeEv(ptr noundef nonnull align 8 dereferenceable(24) %inputSourceMaps_) #9
  %cmp = icmp ult i64 %conv, %call6
  br i1 %cmp, label %if.then7, label %if.end22

if.then7:                                         ; preds = %land.lhs.true
  %inputSourceMaps_8 = getelementptr inbounds %"class.hermes::SourceMapGenerator", ptr %this1, i32 0, i32 2
  %4 = load ptr, ptr %seg.addr, align 8
  %representedLocation9 = getelementptr inbounds %"struct.hermes::SourceMap::Segment", ptr %4, i32 0, i32 1
  %call10 = call noundef ptr @_ZNK4llvh8OptionalIN6hermes9SourceMap7Segment14SourceLocationEEptEv(ptr noundef nonnull align 4 dereferenceable(24) %representedLocation9)
  %sourceIndex11 = getelementptr inbounds %"struct.hermes::SourceMap::Segment::SourceLocation", ptr %call10, i32 0, i32 0
  %5 = load i32, ptr %sourceIndex11, align 4
  %conv12 = sext i32 %5 to i64
  %call13 = call noundef nonnull align 8 dereferenceable(8) ptr @_ZNKSt6vectorISt10unique_ptrIN6hermes9SourceMapESt14default_deleteIS2_EESaIS5_EEixEm(ptr noundef nonnull align 8 dereferenceable(24) %inputSourceMaps_8, i64 noundef %conv12) #9
  %call14 = call noundef ptr @_ZNKSt10unique_ptrIN6hermes9SourceMapESt14default_deleteIS1_EE3getEv(ptr noundef nonnull align 8 dereferenceable(8) %call13) #9
  store ptr %call14, ptr %inputMap, align 8
  %6 = load ptr, ptr %inputMap, align 8
  %tobool = icmp ne ptr %6, null
  br i1 %tobool, label %if.then15, label %if.end21

if.then15:                                        ; preds = %if.then7
  %7 = load ptr, ptr %inputMap, align 8
  %8 = load ptr, ptr %seg.addr, align 8
  %representedLocation16 = getelementptr inbounds %"struct.hermes::SourceMap::Segment", ptr %8, i32 0, i32 1
  %call17 = call noundef ptr @_ZNK4llvh8OptionalIN6hermes9SourceMap7Segment14SourceLocationEEptEv(ptr noundef nonnull align 4 dereferenceable(24) %representedLocation16)
  %lineIndex = getelementptr inbounds %"struct.hermes::SourceMap::Segment::SourceLocation", ptr %call17, i32 0, i32 1
  %9 = load i32, ptr %lineIndex, align 4
  %add = add nsw i32 %9, 1
  %10 = load ptr, ptr %seg.addr, align 8
  %representedLocation18 = getelementptr inbounds %"struct.hermes::SourceMap::Segment", ptr %10, i32 0, i32 1
  %call19 = call noundef ptr @_ZNK4llvh8OptionalIN6hermes9SourceMap7Segment14SourceLocationEEptEv(ptr noundef nonnull align 4 dereferenceable(24) %representedLocation18)
  %columnIndex = getelementptr inbounds %"struct.hermes::SourceMap::Segment::SourceLocation", ptr %call19, i32 0, i32 2
  %11 = load i32, ptr %columnIndex, align 4
  %add20 = add nsw i32 %11, 1
  call void @_ZNK6hermes9SourceMap20getSegmentForAddressEjj(ptr sret(%"class.llvh::Optional.18") align 4 %ref.tmp, ptr noundef nonnull align 8 dereferenceable(104) %7, i32 noundef %add, i32 noundef %add20)
  call void @llvm.memcpy.p0.p0.i64(ptr align 4 %inputSeg, ptr align 4 %ref.tmp, i64 32, i1 false)
  br label %if.end21

if.end21:                                         ; preds = %if.then15, %if.then7
  br label %if.end22

if.end22:                                         ; preds = %if.end21, %land.lhs.true, %if.end
  call void @_ZSt9make_pairIRN4llvh8OptionalIN6hermes9SourceMap7SegmentEEERPKS3_ESt4pairINSt25__strip_reference_wrapperINSt5decayIT_E4typeEE6__typeENSB_INSC_IT0_E4typeEE6__typeEEOSD_OSI_(ptr sret(%"struct.std::pair") align 8 %agg.result, ptr noundef nonnull align 4 dereferenceable(32) %inputSeg, ptr noundef nonnull align 8 dereferenceable(8) %inputMap)
  ret void
}