; Function Attrs: mustprogress nounwind uwtable
define hidden void @_ZNK6hermes18SourceMapGenerator25getInputSegmentForSegmentERKNS_9SourceMap7SegmentE(ptr noalias nocapture writeonly sret(%"struct.std::pair") align 8 %agg.result, ptr nocapture noundef nonnull readonly align 8 dereferenceable(224) %this, ptr nocapture noundef nonnull readonly align 4 dereferenceable(28) %seg) local_unnamed_addr #0 align 2 {
entry:
  %inputSeg.sroa.0 = alloca [28 x i8], align 4
  %inputSeg.sroa.3 = alloca [3 x i8], align 1
  %ref.tmp = alloca %"class.llvh::Optional.18", align 4
  %hasVal.i = getelementptr inbounds i8, ptr %seg, i64 24
  %0 = load i8, ptr %hasVal.i, align 4
  %1 = and i8 %0, 1
  %tobool.i7.not = icmp eq i8 %1, 0
  br i1 %tobool.i7.not, label %if.end22, label %land.lhs.true

land.lhs.true:                                    ; preds = %entry
  %representedLocation = getelementptr inbounds i8, ptr %seg, i64 4
  %2 = load i32, ptr %representedLocation, align 4
  %conv = zext i32 %2 to i64
  %inputSourceMaps_ = getelementptr inbounds i8, ptr %this, i64 48
  %_M_finish.i = getelementptr inbounds i8, ptr %this, i64 56
  %3 = load ptr, ptr %_M_finish.i, align 8
  %4 = load ptr, ptr %inputSourceMaps_, align 8
  %sub.ptr.lhs.cast.i = ptrtoint ptr %3 to i64
  %sub.ptr.rhs.cast.i = ptrtoint ptr %4 to i64
  %sub.ptr.sub.i = sub i64 %sub.ptr.lhs.cast.i, %sub.ptr.rhs.cast.i
  %sub.ptr.div.i = ashr exact i64 %sub.ptr.sub.i, 3
  %cmp = icmp ugt i64 %sub.ptr.div.i, %conv
  br i1 %cmp, label %if.then7, label %if.end22

if.then7:                                         ; preds = %land.lhs.true
  %conv12 = sext i32 %2 to i64
  %add.ptr.i = getelementptr inbounds %"class.std::unique_ptr", ptr %4, i64 %conv12
  %5 = load ptr, ptr %add.ptr.i, align 8
  %tobool.not = icmp eq ptr %5, null
  br i1 %tobool.not, label %if.end22, label %if.then15

if.then15:                                        ; preds = %if.then7
  %lineIndex = getelementptr inbounds i8, ptr %seg, i64 8
  %6 = load i32, ptr %lineIndex, align 4
  %add = add nsw i32 %6, 1
  %columnIndex = getelementptr inbounds i8, ptr %seg, i64 12
  %7 = load i32, ptr %columnIndex, align 4
  %add20 = add nsw i32 %7, 1
  call void @_ZNK6hermes9SourceMap20getSegmentForAddressEjj(ptr nonnull sret(%"class.llvh::Optional.18") align 4 %ref.tmp, ptr noundef nonnull align 8 dereferenceable(104) %5, i32 noundef %add, i32 noundef %add20) #16
  call void @llvm.memcpy.p0.p0.i64(ptr noundef nonnull align 4 dereferenceable(28) %inputSeg.sroa.0, ptr noundef nonnull align 4 dereferenceable(28) %ref.tmp, i64 28, i1 false)
  %inputSeg.sroa.2.0.ref.tmp.sroa_idx = getelementptr inbounds i8, ptr %ref.tmp, i64 28
  %inputSeg.sroa.2.0.copyload = load i8, ptr %inputSeg.sroa.2.0.ref.tmp.sroa_idx, align 4
  %inputSeg.sroa.3.0.ref.tmp.sroa_idx = getelementptr inbounds i8, ptr %ref.tmp, i64 29
  call void @llvm.memcpy.p0.p0.i64(ptr noundef nonnull align 1 dereferenceable(3) %inputSeg.sroa.3, ptr noundef nonnull align 1 dereferenceable(3) %inputSeg.sroa.3.0.ref.tmp.sroa_idx, i64 3, i1 false)
  br label %if.end22

if.end22:                                         ; preds = %if.then7, %if.then15, %land.lhs.true, %entry
  %inputMap.0 = phi ptr [ null, %if.then7 ], [ %5, %if.then15 ], [ null, %land.lhs.true ], [ null, %entry ]
  %inputSeg.sroa.2.0 = phi i8 [ 0, %if.then7 ], [ %inputSeg.sroa.2.0.copyload, %if.then15 ], [ 0, %land.lhs.true ], [ 0, %entry ]
  call void @llvm.memcpy.p0.p0.i64(ptr noundef nonnull align 8 dereferenceable(28) %agg.result, ptr noundef nonnull align 4 dereferenceable(28) %inputSeg.sroa.0, i64 28, i1 false)
  %inputSeg.sroa.2.0.agg.result.sroa_idx = getelementptr inbounds i8, ptr %agg.result, i64 28
  store i8 %inputSeg.sroa.2.0, ptr %inputSeg.sroa.2.0.agg.result.sroa_idx, align 4
  %inputSeg.sroa.3.0.agg.result.sroa_idx = getelementptr inbounds i8, ptr %agg.result, i64 29
  call void @llvm.memcpy.p0.p0.i64(ptr noundef nonnull align 1 dereferenceable(3) %inputSeg.sroa.3.0.agg.result.sroa_idx, ptr noundef nonnull align 1 dereferenceable(3) %inputSeg.sroa.3, i64 3, i1 false)
  %second.i.i = getelementptr inbounds i8, ptr %agg.result, i64 32
  store ptr %inputMap.0, ptr %second.i.i, align 8, !alias.scope !14
  ret void
}